; Function Attrs: nounwind sspstrong uwtable
define internal void @pci_vga_bochs_write(ptr noundef %ptr, i64 noundef %addr, i64 noundef %val, i32 %size) #0 {
entry:
  %shr = lshr i64 %addr, 1
  %conv = trunc i64 %shr to i32
  tail call void @vbe_ioport_write_index(ptr noundef %ptr, i32 noundef 0, i32 noundef %conv) #4
  %conv1 = trunc i64 %val to i32
  tail call void @vbe_ioport_write_data(ptr noundef %ptr, i32 noundef 0, i32 noundef %conv1) #4
  ret void
}